target datalayout = "e-m:e-p270:32:32-p271:32:32-p272:64:64-i64:64-i128:128-f80:128-n8:16:32:64-S128"
target triple = "x86_64-pc-linux-gnu"

%"class.std::__cxx11::basic_string" = type { %"struct.std::__cxx11::basic_string<char>::_Alloc_hider", i64, %union.anon }
%"struct.std::__cxx11::basic_string<char>::_Alloc_hider" = type { ptr }
%union.anon = type { i64, [8 x i8] }
%class.C_OStream = type { %"class.Imf_3_4::OStream", ptr }
%"class.Imf_3_4::OStream" = type { ptr, %"class.std::__cxx11::basic_string" }
%"class.Imf_3_4::RgbaOutputFile" = type { ptr, ptr, ptr }
%"class.Imf_3_4::Header" = type <{ %"class.std::map", i8, [7 x i8] }>
%"class.std::map" = type { %"class.std::_Rb_tree" }
%"class.std::_Rb_tree" = type { %"struct.std::_Rb_tree<Imf_3_4::Name, std::pair<const Imf_3_4::Name, Imf_3_4::Attribute *>, std::_Select1st<std::pair<const Imf_3_4::Name, Imf_3_4::Attribute *>>, std::less<Imf_3_4::Name>>::_Rb_tree_impl" }
%"struct.std::_Rb_tree<Imf_3_4::Name, std::pair<const Imf_3_4::Name, Imf_3_4::Attribute *>, std::_Select1st<std::pair<const Imf_3_4::Name, Imf_3_4::Attribute *>>, std::less<Imf_3_4::Name>>::_Rb_tree_impl" = type { [8 x i8], %"struct.std::_Rb_tree_header" }
%"struct.std::_Rb_tree_header" = type { %"struct.std::_Rb_tree_node_base", i64 }
%"struct.std::_Rb_tree_node_base" = type { i32, ptr, ptr, ptr }
%"class.Imath_3_2::Vec2" = type { float, float }

@_ZTV9C_OStream = dso_local unnamed_addr constant { [7 x ptr] } { [7 x ptr] [ptr null, ptr @_ZTI9C_OStream, ptr @_ZN7Imf_3_47OStreamD2Ev, ptr @_ZN9C_OStreamD0Ev, ptr @_ZN9C_OStream5writeEPKci, ptr @_ZN9C_OStream5tellpEv, ptr @_ZN9C_OStream5seekpEm] }, align 8

; Function Attrs: inlinehint mustprogress nounwind uwtable
define linkonce_odr dso_local void @_ZN9Imath_3_24Vec2IfEC2Eff(ptr noundef nonnull align 4 dereferenceable(8) %0, float noundef %1, float noundef %2) unnamed_addr #7 comdat align 2 {
  %4 = alloca ptr, align 8
  %5 = alloca float, align 4
  %6 = alloca float, align 4
  store ptr %0, ptr %4, align 8, !tbaa !31
  store float %1, ptr %5, align 4, !tbaa !33
  store float %2, ptr %6, align 4, !tbaa !33
  %7 = load ptr, ptr %4, align 8
  %8 = getelementptr inbounds nuw %"class.Imath_3_2::Vec2", ptr %7, i32 0, i32 0
  %9 = load float, ptr %5, align 4, !tbaa !33
  store float %9, ptr %8, align 4, !tbaa !35
  %10 = getelementptr inbounds nuw %"class.Imath_3_2::Vec2", ptr %7, i32 0, i32 1
  %11 = load float, ptr %6, align 4, !tbaa !33
  store float %11, ptr %10, align 4, !tbaa !37
  ret void
}

; Function Attrs: mustprogress uwtable
define linkonce_odr dso_local void @_ZN9C_OStreamC2EP8_IO_FILEPKc(ptr noundef nonnull align 8 dereferenceable(48) %0, ptr noundef %1, ptr noundef %2) unnamed_addr #4 comdat align 2 {
  %4 = alloca ptr, align 8
  %5 = alloca ptr, align 8
  %6 = alloca ptr, align 8
  store ptr %0, ptr %4, align 8, !tbaa !21
  store ptr %1, ptr %5, align 8, !tbaa !26
  store ptr %2, ptr %6, align 8, !tbaa !9
  %7 = load ptr, ptr %4, align 8
  %8 = load ptr, ptr %6, align 8, !tbaa !9
  call void @_ZN7Imf_3_47OStreamC2EPKc(ptr noundef nonnull align 8 dereferenceable(40) %7, ptr noundef %8)
  store ptr getelementptr inbounds inrange(-16, 40) ({ [7 x ptr] }, ptr @_ZTV9C_OStream, i32 0, i32 0, i32 2), ptr %7, align 8, !tbaa !29
  %9 = getelementptr inbounds nuw %class.C_OStream, ptr %7, i32 0, i32 1
  %10 = load ptr, ptr %5, align 8, !tbaa !26
  store ptr %10, ptr %9, align 8, !tbaa !23
  ret void
}

; Function Attrs: mustprogress uwtable
define dso_local void @_Z13writeRgbaFILEP8_IO_FILEPKcPKN7Imf_3_44RgbaEii(ptr noundef %0, ptr noundef %1, ptr noundef %2, i32 noundef %3, i32 noundef %4) #4 personality ptr @__gxx_personality_v0 {
  %6 = alloca ptr, align 8
  %7 = alloca ptr, align 8
  %8 = alloca ptr, align 8
  %9 = alloca i32, align 4
  %10 = alloca i32, align 4
  %11 = alloca %class.C_OStream, align 8
  %12 = alloca %"class.Imf_3_4::RgbaOutputFile", align 8
  %13 = alloca %"class.Imf_3_4::Header", align 8
  %14 = alloca %"class.Imath_3_2::Vec2", align 4
  %15 = alloca ptr, align 8
  %16 = alloca i32, align 4
  store ptr %0, ptr %6, align 8, !tbaa !26
  store ptr %1, ptr %7, align 8, !tbaa !9
  store ptr %2, ptr %8, align 8, !tbaa !27
  store i32 %3, ptr %9, align 4, !tbaa !11
  store i32 %4, ptr %10, align 4, !tbaa !11
  call void @llvm.lifetime.start.p0(i64 48, ptr %11) #3
  %17 = load ptr, ptr %6, align 8, !tbaa !26
  %18 = load ptr, ptr %7, align 8, !tbaa !9
  call void @_ZN9C_OStreamC2EP8_IO_FILEPKc(ptr noundef nonnull align 8 dereferenceable(48) %11, ptr noundef %17, ptr noundef %18)
  call void @llvm.lifetime.start.p0(i64 24, ptr %12) #3
  call void @llvm.lifetime.start.p0(i64 56, ptr %13) #3
  %19 = load i32, ptr %9, align 4, !tbaa !11
  %20 = load i32, ptr %10, align 4, !tbaa !11
  call void @llvm.lifetime.start.p0(i64 8, ptr %14) #3
  call void @_ZN9Imath_3_24Vec2IfEC2Eff(ptr noundef nonnull align 4 dereferenceable(8) %14, float noundef 0.000000e+00, float noundef 0.000000e+00) #3
  invoke void @_ZN7Imf_3_46HeaderC1EiifRKN9Imath_3_24Vec2IfEEfNS_9LineOrderENS_11CompressionE(ptr noundef nonnull align 8 dereferenceable(49) %13, i32 noundef %19, i32 noundef %20, float noundef 1.000000e+00, ptr noundef nonnull align 4 dereferenceable(8) %14, float noundef 1.000000e+00, i32 noundef 0, i32 noundef 3)
          to label %21 unwind label %31

21:                                               ; preds = %5
  %22 = invoke noundef i32 @_ZN7Imf_3_417globalThreadCountEv()
          to label %23 unwind label %35

23:                                               ; preds = %21
  invoke void @_ZN7Imf_3_414RgbaOutputFileC1ERNS_7OStreamERKNS_6HeaderENS_12RgbaChannelsEi(ptr noundef nonnull align 8 dereferenceable(24) %12, ptr noundef nonnull align 8 dereferenceable(40) %11, ptr noundef nonnull align 8 dereferenceable(49) %13, i32 noundef 15, i32 noundef %22)
          to label %24 unwind label %35

24:                                               ; preds = %23
  call void @_ZN7Imf_3_46HeaderD1Ev(ptr noundef nonnull align 8 dereferenceable(49) %13) #3
  call void @llvm.lifetime.end.p0(i64 8, ptr %14) #3
  call void @llvm.lifetime.end.p0(i64 56, ptr %13) #3
  %25 = load ptr, ptr %8, align 8, !tbaa !27
  %26 = load i32, ptr %9, align 4, !tbaa !11
  %27 = sext i32 %26 to i64
  invoke void @_ZN7Imf_3_414RgbaOutputFile14setFrameBufferEPKNS_4RgbaEmm(ptr noundef nonnull align 8 dereferenceable(24) %12, ptr noundef %25, i64 noundef 1, i64 noundef %27)
          to label %28 unwind label %40

28:                                               ; preds = %24
  %29 = load i32, ptr %10, align 4, !tbaa !11
  invoke void @_ZN7Imf_3_414RgbaOutputFile11writePixelsEi(ptr noundef nonnull align 8 dereferenceable(24) %12, i32 noundef %29)
          to label %30 unwind label %40

30:                                               ; preds = %28
  call void @_ZN7Imf_3_414RgbaOutputFileD1Ev(ptr noundef nonnull align 8 dereferenceable(24) %12) #3
  call void @llvm.lifetime.end.p0(i64 24, ptr %12) #3
  call void @_ZN7Imf_3_47OStreamD2Ev(ptr noundef nonnull align 8 dereferenceable(48) %11) #3
  call void @llvm.lifetime.end.p0(i64 48, ptr %11) #3
  ret void

31:                                               ; preds = %5
  %32 = landingpad { ptr, i32 }
          cleanup
  %33 = extractvalue { ptr, i32 } %32, 0
  store ptr %33, ptr %15, align 8
  %34 = extractvalue { ptr, i32 } %32, 1
  store i32 %34, ptr %16, align 4
  br label %39

35:                                               ; preds = %23, %21
  %36 = landingpad { ptr, i32 }
          cleanup
  %37 = extractvalue { ptr, i32 } %36, 0
  store ptr %37, ptr %15, align 8
  %38 = extractvalue { ptr, i32 } %36, 1
  store i32 %38, ptr %16, align 4
  call void @_ZN7Imf_3_46HeaderD1Ev(ptr noundef nonnull align 8 dereferenceable(49) %13) #3
  br label %39

39:                                               ; preds = %35, %31
  call void @llvm.lifetime.end.p0(i64 8, ptr %14) #3
  call void @llvm.lifetime.end.p0(i64 56, ptr %13) #3
  br label %44

40:                                               ; preds = %28, %24
  %41 = landingpad { ptr, i32 }
          cleanup
  %42 = extractvalue { ptr, i32 } %41, 0
  store ptr %42, ptr %15, align 8
  %43 = extractvalue { ptr, i32 } %41, 1
  store i32 %43, ptr %16, align 4
  call void @_ZN7Imf_3_414RgbaOutputFileD1Ev(ptr noundef nonnull align 8 dereferenceable(24) %12) #3
  br label %44

44:                                               ; preds = %40, %39
  call void @llvm.lifetime.end.p0(i64 24, ptr %12) #3
  call void @_ZN7Imf_3_47OStreamD2Ev(ptr noundef nonnull align 8 dereferenceable(48) %11) #3
  call void @llvm.lifetime.end.p0(i64 48, ptr %11) #3
  br label %45

45:                                               ; preds = %44
  %46 = load ptr, ptr %15, align 8
  %47 = load i32, ptr %16, align 4
  %48 = insertvalue { ptr, i32 } poison, ptr %46, 0
  %49 = insertvalue { ptr, i32 } %48, i32 %47, 1
  resume { ptr, i32 } %49
}