; Function Attrs: mustprogress uwtable
define dso_local void @_Z13writeRgbaFILEP8_IO_FILEPKcPKN7Imf_3_44RgbaEii(ptr noundef %0, ptr noundef %1, ptr noundef %2, i32 noundef %3, i32 noundef %4) local_unnamed_addr #3 personality ptr @__gxx_personality_v0 {
  %6 = alloca %class.C_OStream, align 8
  %7 = alloca %"class.Imf_3_4::RgbaOutputFile", align 8
  %8 = alloca %"class.Imf_3_4::Header", align 8
  %9 = alloca %"class.Imath_3_2::Vec2", align 4
  call void @llvm.lifetime.start.p0(i64 48, ptr nonnull %6) #19
  call void @_ZN7Imf_3_47OStreamC2EPKc(ptr noundef nonnull align 8 dereferenceable(48) %6, ptr noundef %1)
  store ptr getelementptr inbounds nuw inrange(-16, 40) (i8, ptr @_ZTV9C_OStream, i64 16), ptr %6, align 8, !tbaa !18
  %10 = getelementptr inbounds nuw i8, ptr %6, i64 40
  store ptr %0, ptr %10, align 8, !tbaa !15
  call void @llvm.lifetime.start.p0(i64 24, ptr nonnull %7) #19
  call void @llvm.lifetime.start.p0(i64 56, ptr nonnull %8) #19
  call void @llvm.lifetime.start.p0(i64 8, ptr nonnull %9) #19
  store float 0.000000e+00, ptr %9, align 4, !tbaa !20
  %11 = getelementptr inbounds nuw i8, ptr %9, i64 4
  store float 0.000000e+00, ptr %11, align 4, !tbaa !23
  invoke void @_ZN7Imf_3_46HeaderC1EiifRKN9Imath_3_24Vec2IfEEfNS_9LineOrderENS_11CompressionE(ptr noundef nonnull align 8 dereferenceable(49) %8, i32 noundef %3, i32 noundef %4, float noundef 1.000000e+00, ptr noundef nonnull align 4 dereferenceable(8) %9, float noundef 1.000000e+00, i32 noundef 0, i32 noundef 3)
          to label %12 unwind label %19

12:                                               ; preds = %5
  %13 = invoke noundef i32 @_ZN7Imf_3_417globalThreadCountEv()
          to label %14 unwind label %21

14:                                               ; preds = %12
  invoke void @_ZN7Imf_3_414RgbaOutputFileC1ERNS_7OStreamERKNS_6HeaderENS_12RgbaChannelsEi(ptr noundef nonnull align 8 dereferenceable(24) %7, ptr noundef nonnull align 8 dereferenceable(40) %6, ptr noundef nonnull align 8 dereferenceable(49) %8, i32 noundef 15, i32 noundef %13)
          to label %15 unwind label %21

15:                                               ; preds = %14
  call void @_ZN7Imf_3_46HeaderD1Ev(ptr noundef nonnull align 8 dereferenceable(49) %8) #19
  call void @llvm.lifetime.end.p0(i64 8, ptr nonnull %9) #19
  call void @llvm.lifetime.end.p0(i64 56, ptr nonnull %8) #19
  %16 = sext i32 %3 to i64
  invoke void @_ZN7Imf_3_414RgbaOutputFile14setFrameBufferEPKNS_4RgbaEmm(ptr noundef nonnull align 8 dereferenceable(24) %7, ptr noundef %2, i64 noundef 1, i64 noundef %16)
          to label %17 unwind label %24

17:                                               ; preds = %15
  invoke void @_ZN7Imf_3_414RgbaOutputFile11writePixelsEi(ptr noundef nonnull align 8 dereferenceable(24) %7, i32 noundef %4)
          to label %18 unwind label %24

18:                                               ; preds = %17
  call void @_ZN7Imf_3_414RgbaOutputFileD1Ev(ptr noundef nonnull align 8 dereferenceable(24) %7) #19
  call void @llvm.lifetime.end.p0(i64 24, ptr nonnull %7) #19
  call void @_ZN7Imf_3_47OStreamD2Ev(ptr noundef nonnull align 8 dereferenceable(48) %6) #19
  call void @llvm.lifetime.end.p0(i64 48, ptr nonnull %6) #19
  ret void

19:                                               ; preds = %5
  %20 = landingpad { ptr, i32 }
          cleanup
  br label %23

21:                                               ; preds = %14, %12
  %22 = landingpad { ptr, i32 }
          cleanup
  call void @_ZN7Imf_3_46HeaderD1Ev(ptr noundef nonnull align 8 dereferenceable(49) %8) #19
  br label %23

23:                                               ; preds = %21, %19
  %.pn = phi { ptr, i32 } [ %22, %21 ], [ %20, %19 ]
  call void @llvm.lifetime.end.p0(i64 8, ptr nonnull %9) #19
  call void @llvm.lifetime.end.p0(i64 56, ptr nonnull %8) #19
  br label %26

24:                                               ; preds = %17, %15
  %25 = landingpad { ptr, i32 }
          cleanup
  call void @_ZN7Imf_3_414RgbaOutputFileD1Ev(ptr noundef nonnull align 8 dereferenceable(24) %7) #19
  br label %26

26:                                               ; preds = %24, %23
  %.pn11 = phi { ptr, i32 } [ %25, %24 ], [ %.pn, %23 ]
  call void @llvm.lifetime.end.p0(i64 24, ptr nonnull %7) #19
  call void @_ZN7Imf_3_47OStreamD2Ev(ptr noundef nonnull align 8 dereferenceable(48) %6) #19
  call void @llvm.lifetime.end.p0(i64 48, ptr nonnull %6) #19
  resume { ptr, i32 } %.pn11
}